target datalayout = "e-m:e-p270:32:32-p271:32:32-p272:64:64-i64:64-i128:128-f80:128-n8:16:32:64-S128"
target triple = "x86_64-pc-linux-gnu"

@.str.1380 = private unnamed_addr constant [33 x i8] c"PRAGMA reverse_unordered_selects\00", align 1
@.str.1381 = private unnamed_addr constant [37 x i8] c"PRAGMA reverse_unordered_selects(%d)\00", align 1

; Function Attrs: nounwind uwtable
define internal void @toggleSelectOrder(ptr noundef %0) #0 {
  %2 = alloca ptr, align 8
  %3 = alloca ptr, align 8
  %4 = alloca i32, align 4
  %5 = alloca [100 x i8], align 16
  store ptr %0, ptr %2, align 8, !tbaa !19
  call void @llvm.lifetime.start.p0(i64 8, ptr %3) #14
  store ptr null, ptr %3, align 8, !tbaa !38
  call void @llvm.lifetime.start.p0(i64 4, ptr %4) #14
  store i32 0, ptr %4, align 4, !tbaa !3
  call void @llvm.lifetime.start.p0(i64 100, ptr %5) #14
  %6 = load ptr, ptr %2, align 8, !tbaa !19
  %7 = call i32 @sqlite3_prepare_v2(ptr noundef %6, ptr noundef @.str.1380, i32 noundef -1, ptr noundef %3, ptr noundef null)
  %8 = load ptr, ptr %3, align 8, !tbaa !38
  %9 = call i32 @sqlite3_step(ptr noundef %8)
  %10 = icmp eq i32 %9, 100
  br i1 %10, label %11, label %14

11:                                               ; preds = %1
  %12 = load ptr, ptr %3, align 8, !tbaa !38
  %13 = call i32 @sqlite3_column_int(ptr noundef %12, i32 noundef 0)
  store i32 %13, ptr %4, align 4, !tbaa !3
  br label %14

14:                                               ; preds = %11, %1
  %15 = load ptr, ptr %3, align 8, !tbaa !38
  %16 = call i32 @sqlite3_finalize(ptr noundef %15)
  %17 = getelementptr inbounds [100 x i8], ptr %5, i64 0, i64 0
  %18 = load i32, ptr %4, align 4, !tbaa !3
  %19 = icmp ne i32 %18, 0
  %20 = xor i1 %19, true
  %21 = zext i1 %20 to i32
  %22 = call ptr (i32, ptr, ptr, ...) @sqlite3_snprintf(i32 noundef 100, ptr noundef %17, ptr noundef @.str.1381, i32 noundef %21)
  %23 = load ptr, ptr %2, align 8, !tbaa !19
  %24 = getelementptr inbounds [100 x i8], ptr %5, i64 0, i64 0
  %25 = call i32 @sqlite3_exec(ptr noundef %23, ptr noundef %24, ptr noundef null, ptr noundef null, ptr noundef null)
  call void @llvm.lifetime.end.p0(i64 100, ptr %5) #14
  call void @llvm.lifetime.end.p0(i64 4, ptr %4) #14
  call void @llvm.lifetime.end.p0(i64 8, ptr %3) #14
  ret void
}