; Function Attrs: nounwind uwtable
define internal fastcc void @toggleSelectOrder(ptr noundef %0) unnamed_addr #2 {
  %2 = alloca ptr, align 8
  %3 = alloca [100 x i8], align 16
  call void @llvm.lifetime.start.p0(i64 8, ptr nonnull %2) #43
  store ptr null, ptr %2, align 8, !tbaa !31
  call void @llvm.lifetime.start.p0(i64 100, ptr nonnull %3) #43
  %4 = call i32 @sqlite3_prepare_v2(ptr noundef %0, ptr noundef nonnull @.str.1380, i32 noundef -1, ptr noundef nonnull %2, ptr noundef null) #43
  %5 = load ptr, ptr %2, align 8, !tbaa !31
  %6 = call i32 @sqlite3_step(ptr noundef %5) #43
  %7 = icmp eq i32 %6, 100
  br i1 %7, label %8, label %13

8:                                                ; preds = %1
  %9 = load ptr, ptr %2, align 8, !tbaa !31
  %10 = call i32 @sqlite3_column_int(ptr noundef %9, i32 noundef 0) #43
  %11 = icmp eq i32 %10, 0
  %12 = zext i1 %11 to i32
  br label %13

13:                                               ; preds = %8, %1
  %.0 = phi i32 [ %12, %8 ], [ 1, %1 ]
  %14 = load ptr, ptr %2, align 8, !tbaa !31
  %15 = call i32 @sqlite3_finalize(ptr noundef %14) #43
  %16 = call ptr (i32, ptr, ptr, ...) @sqlite3_snprintf(i32 noundef 100, ptr noundef nonnull %3, ptr noundef nonnull @.str.1381, i32 noundef %.0) #43
  %17 = call i32 @sqlite3_exec(ptr noundef %0, ptr noundef nonnull %3, ptr noundef null, ptr noundef null, ptr noundef null) #43
  call void @llvm.lifetime.end.p0(i64 100, ptr nonnull %3) #43
  call void @llvm.lifetime.end.p0(i64 8, ptr nonnull %2) #43
  ret void
}